; Function Attrs: mustprogress nounwind uwtable
define hidden noundef nonnull align 8 dereferenceable(16) ptr @_ZN5osgeo4proj4util10BaseObjectaSEOS2_(ptr noundef nonnull readonly returned align 8 dereferenceable(16) %0, ptr nocapture noundef nonnull readnone align 8 dereferenceable(16) %1) local_unnamed_addr #1 align 2 personality ptr @__gxx_personality_v0 {
  %3 = getelementptr inbounds i8, ptr %0, i64 8
  %4 = load ptr, ptr %3, align 8
  store ptr null, ptr %4, align 8
  %5 = getelementptr inbounds i8, ptr %4, i64 8
  %6 = load ptr, ptr %5, align 8
  store ptr null, ptr %5, align 8
  %.not.i.i.i = icmp eq ptr %6, null
  br i1 %.not.i.i.i, label %_ZNSt10__weak_ptrIN5osgeo4proj4util10BaseObjectELN9__gnu_cxx12_Lock_policyE2EE5resetEv.exit, label %7

7:                                                ; preds = %2
  %8 = getelementptr inbounds i8, ptr %6, i64 12
  %9 = load i8, ptr @__libc_single_threaded, align 1
  %.not.i.i.i.i = icmp eq i8 %9, 0
  br i1 %.not.i.i.i.i, label %13, label %10

10:                                               ; preds = %7
  %11 = load i32, ptr %8, align 4
  %12 = add nsw i32 %11, -1
  store i32 %12, ptr %8, align 4
  br label %15

13:                                               ; preds = %7
  %14 = atomicrmw volatile add ptr %8, i32 -1 acq_rel, align 4
  br label %15

15:                                               ; preds = %13, %10
  %.0.i.i.i.i = phi i32 [ %11, %10 ], [ %14, %13 ]
  %16 = icmp eq i32 %.0.i.i.i.i, 1
  br i1 %16, label %17, label %_ZNSt10__weak_ptrIN5osgeo4proj4util10BaseObjectELN9__gnu_cxx12_Lock_policyE2EE5resetEv.exit

17:                                               ; preds = %15
  %18 = load ptr, ptr %6, align 8
  %19 = getelementptr inbounds i8, ptr %18, i64 24
  %20 = load ptr, ptr %19, align 8
  tail call void %20(ptr noundef nonnull align 8 dereferenceable(16) %6) #24
  br label %_ZNSt10__weak_ptrIN5osgeo4proj4util10BaseObjectELN9__gnu_cxx12_Lock_policyE2EE5resetEv.exit

_ZNSt10__weak_ptrIN5osgeo4proj4util10BaseObjectELN9__gnu_cxx12_Lock_policyE2EE5resetEv.exit: ; preds = %2, %15, %17
  ret ptr %0
}